In archive display/built-in.o:

disp_manager.o:     file format elf32-littlearm

Disassembly of section .text:

00000000 <RegisterDispOpr>:
   0:	e59f2030 	ldr	r2, [pc, #48]	; 38 <RegisterDispOpr+0x38>
   4:	e5923000 	ldr	r3, [r2]
   8:	e3530000 	cmp	r3, #0	; 0x0
   c:	05820000 	streq	r0, [r2]
  10:	0580301c 	streq	r3, [r0, #28]
  14:	0a000005 	beq	30 <RegisterDispOpr+0x30>
  18:	e1a02003 	mov	r2, r3
  1c:	e593301c 	ldr	r3, [r3, #28]
  20:	e3530000 	cmp	r3, #0	; 0x0
  24:	1afffffb 	bne	18 <RegisterDispOpr+0x18>
  28:	e582001c 	str	r0, [r2, #28]
  2c:	e580301c 	str	r3, [r0, #28]
  30:	e3a00000 	mov	r0, #0	; 0x0
  34:	e12fff1e 	bx	lr
  38:	00000000 	.word	0x00000000

0000003c <DisplayInit>:
  3c:	e92d4010 	push	{r4, lr}
  40:	ebfffffe 	bl	0 <FBInit>
  44:	e8bd4010 	pop	{r4, lr}
  48:	e12fff1e 	bx	lr

0000004c <GetDispOpr>:
  4c:	e59f3040 	ldr	r3, [pc, #64]	; 94 <GetDispOpr+0x48>
  50:	e92d4070 	push	{r4, r5, r6, lr}
  54:	e5934000 	ldr	r4, [r3]
  58:	e3540000 	cmp	r4, #0	; 0x0
  5c:	e1a05000 	mov	r5, r0
  60:	1a000003 	bne	74 <GetDispOpr+0x28>
  64:	ea000007 	b	88 <GetDispOpr+0x3c>
  68:	e594401c 	ldr	r4, [r4, #28]
  6c:	e3540000 	cmp	r4, #0	; 0x0
  70:	0a000004 	beq	88 <GetDispOpr+0x3c>
  74:	e5940000 	ldr	r0, [r4]
  78:	e1a01005 	mov	r1, r5
  7c:	ebfffffe 	bl	0 <strcmp>
  80:	e3500000 	cmp	r0, #0	; 0x0
  84:	1afffff7 	bne	68 <GetDispOpr+0x1c>
  88:	e1a00004 	mov	r0, r4
  8c:	e8bd4070 	pop	{r4, r5, r6, lr}
  90:	e12fff1e 	bx	lr
  94:	00000000 	.word	0x00000000

00000098 <ShowDispOpr>:
  98:	e59f3038 	ldr	r3, [pc, #56]	; d8 <ShowDispOpr+0x40>
  9c:	e92d4070 	push	{r4, r5, r6, lr}
  a0:	e5935000 	ldr	r5, [r3]
  a4:	e3550000 	cmp	r5, #0	; 0x0
  a8:	0a000008 	beq	d0 <ShowDispOpr+0x38>
  ac:	e3a04000 	mov	r4, #0	; 0x0
  b0:	e1a01004 	mov	r1, r4
  b4:	e5952000 	ldr	r2, [r5]
  b8:	e59f001c 	ldr	r0, [pc, #28]	; dc <ShowDispOpr+0x44>
  bc:	ebfffffe 	bl	0 <printf>
  c0:	e595501c 	ldr	r5, [r5, #28]
  c4:	e3550000 	cmp	r5, #0	; 0x0
  c8:	e2844001 	add	r4, r4, #1	; 0x1
  cc:	1afffff7 	bne	b0 <ShowDispOpr+0x18>
  d0:	e8bd4070 	pop	{r4, r5, r6, lr}
  d4:	e12fff1e 	bx	lr
	...
Disassembly of section .text:

00000000 <FBShowPixel>:
   0:	e59fc090 	ldr	ip, [pc, #144]	; 98 <FBShowPixel+0x98>
   4:	e59c3000 	ldr	r3, [ip]
   8:	e1500003 	cmp	r0, r3
   c:	e92d0030 	push	{r4, r5}
  10:	e1a04002 	mov	r4, r2
  14:	3a000002 	bcc	24 <FBShowPixel+0x24>
  18:	e3e00000 	mvn	r0, #0	; 0x0
  1c:	e8bd0030 	pop	{r4, r5}
  20:	e12fff1e 	bx	lr
  24:	e59c3004 	ldr	r3, [ip, #4]
  28:	e1510003 	cmp	r1, r3
  2c:	2afffff9 	bcs	18 <FBShowPixel+0x18>
  30:	e59c30a8 	ldr	r3, [ip, #168]
  34:	e0020093 	mul	r2, r3, r0
  38:	e59c30a4 	ldr	r3, [ip, #164]
  3c:	e0252193 	mla	r5, r3, r1, r2
  40:	e59c0018 	ldr	r0, [ip, #24]
  44:	e3500010 	cmp	r0, #16	; 0x10
  48:	01a03424 	lsreq	r3, r4, #8
  4c:	01a022a4 	lsreq	r2, r4, #5
  50:	02033b3e 	andeq	r3, r3, #63488	; 0xf800
  54:	02022e7e 	andeq	r2, r2, #2016	; 0x7e0
  58:	01833002 	orreq	r3, r3, r2
  5c:	e59cc0a0 	ldr	ip, [ip, #160]
  60:	01a01c04 	lsleq	r1, r4, #24
  64:	01833da1 	orreq	r3, r3, r1, lsr #27
  68:	018c30b5 	strheq	r3, [ip, r5]
  6c:	03a00000 	moveq	r0, #0	; 0x0
  70:	0affffe9 	beq	1c <FBShowPixel+0x1c>
  74:	e3500020 	cmp	r0, #32	; 0x20
  78:	078c4005 	streq	r4, [ip, r5]
  7c:	03a00000 	moveq	r0, #0	; 0x0
  80:	0affffe5 	beq	1c <FBShowPixel+0x1c>
  84:	e3500008 	cmp	r0, #8	; 0x8
  88:	07cc4005 	strbeq	r4, [ip, r5]
  8c:	03a00000 	moveq	r0, #0	; 0x0
  90:	1affffe0 	bne	18 <FBShowPixel+0x18>
  94:	eaffffe0 	b	1c <FBShowPixel+0x1c>
  98:	00000000 	.word	0x00000000

0000009c <FBInit>:
  9c:	e92d4010 	push	{r4, lr}
  a0:	e59f0008 	ldr	r0, [pc, #8]	; b0 <FBInit+0x14>
  a4:	ebfffffe 	bl	0 <RegisterDispOpr>
  a8:	e8bd4010 	pop	{r4, lr}
  ac:	e12fff1e 	bx	lr
  b0:	00000000 	.word	0x00000000

000000b4 <FBCleanScreen>:
  b4:	e59f20ac 	ldr	r2, [pc, #172]	; 168 <FBCleanScreen+0xb4>
  b8:	e5923018 	ldr	r3, [r2, #24]
  bc:	e3530010 	cmp	r3, #16	; 0x10
  c0:	e1a01000 	mov	r1, r0
  c4:	e92d4010 	push	{r4, lr}
  c8:	e59200a0 	ldr	r0, [r2, #160]
  cc:	0a000014 	beq	124 <FBCleanScreen+0x70>
  d0:	e3530020 	cmp	r3, #32	; 0x20
  d4:	0a000008 	beq	fc <FBCleanScreen+0x48>
  d8:	e3530008 	cmp	r3, #8	; 0x8
  dc:	13e00000 	mvnne	r0, #0	; 0x0
  e0:	0a000001 	beq	ec <FBCleanScreen+0x38>
  e4:	e8bd4010 	pop	{r4, lr}
  e8:	e12fff1e 	bx	lr
  ec:	e59220ac 	ldr	r2, [r2, #172]
  f0:	ebfffffe 	bl	0 <memset>
  f4:	e3a00000 	mov	r0, #0	; 0x0
  f8:	eafffff9 	b	e4 <FBCleanScreen+0x30>
  fc:	e59220ac 	ldr	r2, [r2, #172]
 100:	e3520000 	cmp	r2, #0	; 0x0
 104:	13a03000 	movne	r3, #0	; 0x0
 108:	0a000003 	beq	11c <FBCleanScreen+0x68>
 10c:	e7801003 	str	r1, [r0, r3]
 110:	e2833004 	add	r3, r3, #4	; 0x4
 114:	e1530002 	cmp	r3, r2
 118:	3afffffb 	bcc	10c <FBCleanScreen+0x58>
 11c:	e3a00000 	mov	r0, #0	; 0x0
 120:	eaffffef 	b	e4 <FBCleanScreen+0x30>
 124:	e59240ac 	ldr	r4, [r2, #172]
 128:	e1a03421 	lsr	r3, r1, #8
 12c:	e1a022a1 	lsr	r2, r1, #5
 130:	e2033b3e 	and	r3, r3, #63488	; 0xf800
 134:	e2022e7e 	and	r2, r2, #2016	; 0x7e0
 138:	e1833002 	orr	r3, r3, r2
 13c:	e1a01c01 	lsl	r1, r1, #24
 140:	e3540000 	cmp	r4, #0	; 0x0
 144:	e1831da1 	orr	r1, r3, r1, lsr #27
 148:	0afffff3 	beq	11c <FBCleanScreen+0x68>
 14c:	e3a0c000 	mov	ip, #0	; 0x0
 150:	e18010bc 	strh	r1, [r0, ip]
 154:	e28cc002 	add	ip, ip, #2	; 0x2
 158:	e154000c 	cmp	r4, ip
 15c:	8afffffb 	bhi	150 <FBCleanScreen+0x9c>
 160:	e3a00000 	mov	r0, #0	; 0x0
 164:	eaffffde 	b	e4 <FBCleanScreen+0x30>
 168:	00000000 	.word	0x00000000

0000016c <FBDeviceInit>:
 16c:	e92d40f0 	push	{r4, r5, r6, r7, lr}
 170:	e3a01002 	mov	r1, #2	; 0x2
 174:	e24dd00c 	sub	sp, sp, #12	; 0xc
 178:	e59f00c4 	ldr	r0, [pc, #196]	; 244 <FBDeviceInit+0xd8>
 17c:	ebfffffe 	bl	0 <open>
 180:	e59f70c0 	ldr	r7, [pc, #192]	; 248 <FBDeviceInit+0xdc>
 184:	e3a01c46 	mov	r1, #17920	; 0x4600
 188:	e1a02007 	mov	r2, r7
 18c:	e58700b0 	str	r0, [r7, #176]
 190:	ebfffffe 	bl	0 <ioctl>
 194:	e3500000 	cmp	r0, #0	; 0x0
 198:	aa000003 	bge	1ac <FBDeviceInit+0x40>
 19c:	e3e00000 	mvn	r0, #0	; 0x0
 1a0:	e28dd00c 	add	sp, sp, #12	; 0xc
 1a4:	e8bd40f0 	pop	{r4, r5, r6, r7, lr}
 1a8:	e12fff1e 	bx	lr
 1ac:	e3a01c46 	mov	r1, #17920	; 0x4600
 1b0:	e2811002 	add	r1, r1, #2	; 0x2
 1b4:	e59700b0 	ldr	r0, [r7, #176]
 1b8:	e28720b4 	add	r2, r7, #180	; 0xb4
 1bc:	ebfffffe 	bl	0 <ioctl>
 1c0:	e3500000 	cmp	r0, #0	; 0x0
 1c4:	bafffff4 	blt	19c <FBDeviceInit+0x30>
 1c8:	e5971004 	ldr	r1, [r7, #4]
 1cc:	e5973000 	ldr	r3, [r7]
 1d0:	e0000193 	mul	r0, r3, r1
 1d4:	e5972018 	ldr	r2, [r7, #24]
 1d8:	e00c0092 	mul	ip, r2, r0
 1dc:	e3a05000 	mov	r5, #0	; 0x0
 1e0:	e1a0c1ac 	lsr	ip, ip, #3
 1e4:	e597e0b0 	ldr	lr, [r7, #176]
 1e8:	e1a0100c 	mov	r1, ip
 1ec:	e3a02003 	mov	r2, #3	; 0x3
 1f0:	e3a03001 	mov	r3, #1	; 0x1
 1f4:	e1a00005 	mov	r0, r5
 1f8:	e587c0ac 	str	ip, [r7, #172]
 1fc:	e58de000 	str	lr, [sp]
 200:	e58d5004 	str	r5, [sp, #4]
 204:	ebfffffe 	bl	0 <mmap>
 208:	e597c018 	ldr	ip, [r7, #24]
 20c:	e5976000 	ldr	r6, [r7]
 210:	e0020c96 	mul	r2, r6, ip
 214:	e59f1030 	ldr	r1, [pc, #48]	; 24c <FBDeviceInit+0xe0>
 218:	e5974004 	ldr	r4, [r7, #4]
 21c:	e1a021a2 	lsr	r2, r2, #3
 220:	e1a031ac 	lsr	r3, ip, #3
 224:	e58700a0 	str	r0, [r7, #160]
 228:	e58730a8 	str	r3, [r7, #168]
 22c:	e5814008 	str	r4, [r1, #8]
 230:	e581c00c 	str	ip, [r1, #12]
 234:	e58720a4 	str	r2, [r7, #164]
 238:	e5816004 	str	r6, [r1, #4]
 23c:	e1a00005 	mov	r0, r5
 240:	eaffffd6 	b	1a0 <FBDeviceInit+0x34>
	...